; Function Attrs: mustprogress nounwind uwtable
define hidden void @_ZN14TimePartitions31report_gc_phase_start_sub_phaseEPKcRK11TimeInstantI30CompositeCounterRepresentation29CompositeElapsedCounterSourceE(ptr nocapture noundef nonnull align 8 dereferenceable(72) %0, ptr noundef %1, ptr nocapture noundef nonnull readonly align 8 dereferenceable(16) %2) local_unnamed_addr #3 align 2 {
  %.sroa.3.i = alloca <{ [4 x i8], %class.TimeInstant, %class.TimeInstant }>, align 4
  %4 = getelementptr inbounds i8, ptr %0, i64 8
  %5 = getelementptr inbounds i8, ptr %0, i64 32
  %6 = load i32, ptr %5, align 8
  %7 = add nsw i32 %6, -1
  %8 = sext i32 %7 to i64
  %9 = getelementptr inbounds [6 x i32], ptr %4, i64 0, i64 %8
  %10 = load i32, ptr %9, align 4
  %11 = load ptr, ptr %0, align 8
  %12 = getelementptr inbounds i8, ptr %11, i64 8
  %13 = load ptr, ptr %12, align 8
  %14 = sext i32 %10 to i64
  %.sroa.1.0..sroa_idx.i = getelementptr inbounds %class.GCPhase, ptr %13, i64 %14, i32 5
  %.sroa.1.0.copyload.i = load i32, ptr %.sroa.1.0..sroa_idx.i, align 8
  call void @llvm.lifetime.start.p0(i64 36, ptr nonnull %.sroa.3.i)
  %.sroa.3.4..sroa_idx.i = getelementptr inbounds i8, ptr %.sroa.3.i, i64 4
  %.sroa.3.i.20.i.20.i.20..sroa_idx = getelementptr inbounds i8, ptr %.sroa.3.i, i64 20
  call void @llvm.memset.p0.i64(ptr noundef nonnull align 4 dereferenceable(16) %.sroa.3.i.20.i.20.i.20..sroa_idx, i8 0, i64 16, i1 false)
  call void @llvm.memcpy.p0.p0.i64(ptr noundef nonnull align 4 dereferenceable(16) %.sroa.3.4..sroa_idx.i, ptr noundef nonnull readonly align 8 dereferenceable(16) %2, i64 16, i1 false)
  %15 = load i32, ptr %11, align 8
  %16 = getelementptr inbounds i8, ptr %11, i64 4
  %17 = load i32, ptr %16, align 4
  %18 = icmp eq i32 %15, %17
  br i1 %18, label %19, label %_ZN14TimePartitions21report_gc_phase_startEPKcRK11TimeInstantI30CompositeCounterRepresentation29CompositeElapsedCounterSourceEN7GCPhase9PhaseTypeE.exit

19:                                               ; preds = %3
  %20 = add nsw i32 %15, 1
  %21 = icmp sgt i32 %15, -1
  %22 = xor i32 %15, -2147483648
  %23 = and i32 %22, %20
  %24 = icmp eq i32 %23, 0
  %25 = and i1 %21, %24
  %26 = tail call range(i32 0, 33) i32 @llvm.ctlz.i32(i32 %20, i1 true)
  %27 = sub nuw nsw i32 32, %26
  %28 = shl nuw i32 1, %27
  %.0.i.i.i.i.i = select i1 %25, i32 %20, i32 %28
  tail call void @_ZN26GrowableArrayWithAllocatorI7GCPhase13GrowableArrayIS0_EE9expand_toEi(ptr noundef nonnull align 8 dereferenceable(16) %11, i32 noundef %.0.i.i.i.i.i)
  %.pre.i.i = load i32, ptr %11, align 8
  %.pre = load ptr, ptr %12, align 8
  br label %_ZN14TimePartitions21report_gc_phase_startEPKcRK11TimeInstantI30CompositeCounterRepresentation29CompositeElapsedCounterSourceEN7GCPhase9PhaseTypeE.exit

_ZN14TimePartitions21report_gc_phase_startEPKcRK11TimeInstantI30CompositeCounterRepresentation29CompositeElapsedCounterSourceEN7GCPhase9PhaseTypeE.exit: ; preds = %3, %19
  %29 = phi ptr [ %.pre, %19 ], [ %13, %3 ]
  %30 = phi i32 [ %.pre.i.i, %19 ], [ %15, %3 ]
  %31 = add nsw i32 %30, 1
  store i32 %31, ptr %11, align 8
  %32 = sext i32 %30 to i64
  %33 = getelementptr inbounds %class.GCPhase, ptr %29, i64 %32
  store ptr %1, ptr %33, align 8
  %.sroa.2.0..sroa_idx.i = getelementptr inbounds i8, ptr %33, i64 8
  store i32 %6, ptr %.sroa.2.0..sroa_idx.i, align 8
  %.sroa.3.0..sroa_idx.i = getelementptr inbounds i8, ptr %33, i64 12
  call void @llvm.memcpy.p0.p0.i64(ptr noundef nonnull align 4 dereferenceable(36) %.sroa.3.0..sroa_idx.i, ptr noundef nonnull align 4 dereferenceable(36) %.sroa.3.i, i64 36, i1 false)
  %.sroa.5.0..sroa_idx.i = getelementptr inbounds i8, ptr %33, i64 48
  store i32 %.sroa.1.0.copyload.i, ptr %.sroa.5.0..sroa_idx.i, align 8
  %34 = load i32, ptr %5, align 8
  %35 = sext i32 %34 to i64
  %36 = getelementptr inbounds [6 x i32], ptr %4, i64 0, i64 %35
  store i32 %30, ptr %36, align 4
  %37 = load i32, ptr %5, align 8
  %38 = add nsw i32 %37, 1
  store i32 %38, ptr %5, align 8
  call void @llvm.lifetime.end.p0(i64 36, ptr nonnull %.sroa.3.i)
  ret void
}